target datalayout = "e-m:e-p270:32:32-p271:32:32-p272:64:64-i64:64-i128:128-f80:128-n8:16:32:64-S128"
target triple = "x86_64-pc-linux-gnu"

%struct.bz_stream = type { ptr, i32, i32, i32, ptr, i32, i32, i32, ptr, ptr, ptr, ptr }
%struct.bzFile = type { ptr, [5000 x i8], i32, i8, %struct.bz_stream, i32, i8 }

; Function Attrs: nounwind uwtable
define void @BZ2_bzReadGetUnused(ptr noundef %0, ptr noundef %1, ptr noundef %2, ptr noundef %3) #0 {
  %5 = alloca ptr, align 8
  %6 = alloca ptr, align 8
  %7 = alloca ptr, align 8
  %8 = alloca ptr, align 8
  %9 = alloca ptr, align 8
  store ptr %0, ptr %5, align 8
  store ptr %1, ptr %6, align 8
  store ptr %2, ptr %7, align 8
  store ptr %3, ptr %8, align 8
  %10 = load ptr, ptr %6, align 8
  store ptr %10, ptr %9, align 8
  %11 = load ptr, ptr %9, align 8
  %12 = icmp eq ptr %11, null
  br i1 %12, label %13, label %25

13:                                               ; preds = %4
  %14 = load ptr, ptr %5, align 8
  %15 = icmp ne ptr %14, null
  br i1 %15, label %16, label %18

16:                                               ; preds = %13
  %17 = load ptr, ptr %5, align 8
  store i32 -2, ptr %17, align 4
  br label %18

18:                                               ; preds = %16, %13
  %19 = load ptr, ptr %9, align 8
  %20 = icmp ne ptr %19, null
  br i1 %20, label %21, label %24

21:                                               ; preds = %18
  %22 = load ptr, ptr %9, align 8
  %23 = getelementptr inbounds %struct.bzFile, ptr %22, i32 0, i32 5
  store i32 -2, ptr %23, align 8
  br label %24

24:                                               ; preds = %21, %18
  br label %82

25:                                               ; preds = %4
  %26 = load ptr, ptr %9, align 8
  %27 = getelementptr inbounds %struct.bzFile, ptr %26, i32 0, i32 5
  %28 = load i32, ptr %27, align 8
  %29 = icmp ne i32 %28, 4
  br i1 %29, label %30, label %42

30:                                               ; preds = %25
  %31 = load ptr, ptr %5, align 8
  %32 = icmp ne ptr %31, null
  br i1 %32, label %33, label %35

33:                                               ; preds = %30
  %34 = load ptr, ptr %5, align 8
  store i32 -1, ptr %34, align 4
  br label %35

35:                                               ; preds = %33, %30
  %36 = load ptr, ptr %9, align 8
  %37 = icmp ne ptr %36, null
  br i1 %37, label %38, label %41

38:                                               ; preds = %35
  %39 = load ptr, ptr %9, align 8
  %40 = getelementptr inbounds %struct.bzFile, ptr %39, i32 0, i32 5
  store i32 -1, ptr %40, align 8
  br label %41

41:                                               ; preds = %38, %35
  br label %82

42:                                               ; preds = %25
  %43 = load ptr, ptr %7, align 8
  %44 = icmp eq ptr %43, null
  br i1 %44, label %48, label %45

45:                                               ; preds = %42
  %46 = load ptr, ptr %8, align 8
  %47 = icmp eq ptr %46, null
  br i1 %47, label %48, label %60

48:                                               ; preds = %45, %42
  %49 = load ptr, ptr %5, align 8
  %50 = icmp ne ptr %49, null
  br i1 %50, label %51, label %53

51:                                               ; preds = %48
  %52 = load ptr, ptr %5, align 8
  store i32 -2, ptr %52, align 4
  br label %53

53:                                               ; preds = %51, %48
  %54 = load ptr, ptr %9, align 8
  %55 = icmp ne ptr %54, null
  br i1 %55, label %56, label %59

56:                                               ; preds = %53
  %57 = load ptr, ptr %9, align 8
  %58 = getelementptr inbounds %struct.bzFile, ptr %57, i32 0, i32 5
  store i32 -2, ptr %58, align 8
  br label %59

59:                                               ; preds = %56, %53
  br label %82

60:                                               ; preds = %45
  %61 = load ptr, ptr %5, align 8
  %62 = icmp ne ptr %61, null
  br i1 %62, label %63, label %65

63:                                               ; preds = %60
  %64 = load ptr, ptr %5, align 8
  store i32 0, ptr %64, align 4
  br label %65

65:                                               ; preds = %63, %60
  %66 = load ptr, ptr %9, align 8
  %67 = icmp ne ptr %66, null
  br i1 %67, label %68, label %71

68:                                               ; preds = %65
  %69 = load ptr, ptr %9, align 8
  %70 = getelementptr inbounds %struct.bzFile, ptr %69, i32 0, i32 5
  store i32 0, ptr %70, align 8
  br label %71

71:                                               ; preds = %68, %65
  %72 = load ptr, ptr %9, align 8
  %73 = getelementptr inbounds %struct.bzFile, ptr %72, i32 0, i32 4
  %74 = getelementptr inbounds %struct.bz_stream, ptr %73, i32 0, i32 1
  %75 = load i32, ptr %74, align 8
  %76 = load ptr, ptr %8, align 8
  store i32 %75, ptr %76, align 4
  %77 = load ptr, ptr %9, align 8
  %78 = getelementptr inbounds %struct.bzFile, ptr %77, i32 0, i32 4
  %79 = getelementptr inbounds %struct.bz_stream, ptr %78, i32 0, i32 0
  %80 = load ptr, ptr %79, align 8
  %81 = load ptr, ptr %7, align 8
  store ptr %80, ptr %81, align 8
  br label %82

82:                                               ; preds = %71, %59, %41, %24
  ret void
}