; Function Attrs: mustprogress nofree norecurse nosync nounwind willreturn memory(argmem: readwrite) uwtable
define void @BZ2_bzReadGetUnused(ptr noundef writeonly %0, ptr noundef %1, ptr noundef writeonly %2, ptr noundef writeonly %3) local_unnamed_addr #12 {
  %5 = icmp eq ptr %1, null
  br i1 %5, label %6, label %8

6:                                                ; preds = %4
  %.not33 = icmp eq ptr %0, null
  br i1 %.not33, label %27, label %7

7:                                                ; preds = %6
  store i32 -2, ptr %0, align 4
  br label %27

8:                                                ; preds = %4
  %9 = getelementptr inbounds nuw i8, ptr %1, i64 5096
  %10 = load i32, ptr %9, align 8
  %.not = icmp eq i32 %10, 4
  br i1 %.not, label %14, label %11

11:                                               ; preds = %8
  %.not32 = icmp eq ptr %0, null
  br i1 %.not32, label %13, label %12

12:                                               ; preds = %11
  store i32 -1, ptr %0, align 4
  br label %13

13:                                               ; preds = %11, %12
  store i32 -1, ptr %9, align 8
  br label %27

14:                                               ; preds = %8
  %15 = icmp eq ptr %2, null
  %16 = icmp eq ptr %3, null
  %or.cond = or i1 %15, %16
  %.not31 = icmp eq ptr %0, null
  br i1 %or.cond, label %17, label %20

17:                                               ; preds = %14
  br i1 %.not31, label %19, label %18

18:                                               ; preds = %17
  store i32 -2, ptr %0, align 4
  br label %19

19:                                               ; preds = %17, %18
  store i32 -2, ptr %9, align 8
  br label %27

20:                                               ; preds = %14
  br i1 %.not31, label %22, label %21

21:                                               ; preds = %20
  store i32 0, ptr %0, align 4
  br label %22

22:                                               ; preds = %20, %21
  store i32 0, ptr %9, align 8
  %23 = getelementptr inbounds nuw i8, ptr %1, i64 5016
  %24 = getelementptr inbounds nuw i8, ptr %1, i64 5024
  %25 = load i32, ptr %24, align 8
  store i32 %25, ptr %3, align 4
  %26 = load ptr, ptr %23, align 8
  store ptr %26, ptr %2, align 8
  br label %27

27:                                               ; preds = %6, %7, %19, %13, %22
  ret void
}